target datalayout = "e-m:e-p270:32:32-p271:32:32-p272:64:64-i64:64-i128:128-f80:128-n8:16:32:64-S128"
target triple = "x86_64-unknown-linux-gnu"

%"class.OpenImageIO_v2_6_0::ImageOutput" = type { ptr, %"class.OpenImageIO_v2_6_0::ImageSpec", %"class.std::unique_ptr" }
%"class.OpenImageIO_v2_6_0::ImageSpec" = type { i32, i32, i32, i32, i32, i32, i32, i32, i32, i32, i32, i32, i32, i32, i32, i32, %"struct.OpenImageIO_v2_6_0::TypeDesc", %"class.std::vector", %"class.std::vector.0", i32, i32, i8, %"class.OpenImageIO_v2_6_0::ParamValueList" }
%"struct.OpenImageIO_v2_6_0::TypeDesc" = type { i8, i8, i8, i8, i32 }
%"class.std::vector" = type { %"struct.std::_Vector_base" }
%"struct.std::_Vector_base" = type { %"struct.std::_Vector_base<OpenImageIO_v2_6_0::TypeDesc, std::allocator<OpenImageIO_v2_6_0::TypeDesc>>::_Vector_impl" }
%"struct.std::_Vector_base<OpenImageIO_v2_6_0::TypeDesc, std::allocator<OpenImageIO_v2_6_0::TypeDesc>>::_Vector_impl" = type { %"struct.std::_Vector_base<OpenImageIO_v2_6_0::TypeDesc, std::allocator<OpenImageIO_v2_6_0::TypeDesc>>::_Vector_impl_data" }
%"struct.std::_Vector_base<OpenImageIO_v2_6_0::TypeDesc, std::allocator<OpenImageIO_v2_6_0::TypeDesc>>::_Vector_impl_data" = type { ptr, ptr, ptr }
%"class.std::vector.0" = type { %"struct.std::_Vector_base.1" }
%"struct.std::_Vector_base.1" = type { %"struct.std::_Vector_base<std::__cxx11::basic_string<char>, std::allocator<std::__cxx11::basic_string<char>>>::_Vector_impl" }
%"struct.std::_Vector_base<std::__cxx11::basic_string<char>, std::allocator<std::__cxx11::basic_string<char>>>::_Vector_impl" = type { %"struct.std::_Vector_base<std::__cxx11::basic_string<char>, std::allocator<std::__cxx11::basic_string<char>>>::_Vector_impl_data" }
%"struct.std::_Vector_base<std::__cxx11::basic_string<char>, std::allocator<std::__cxx11::basic_string<char>>>::_Vector_impl_data" = type { ptr, ptr, ptr }
%"class.OpenImageIO_v2_6_0::ParamValueList" = type { %"class.std::vector.5" }
%"class.std::vector.5" = type { %"struct.std::_Vector_base.6" }
%"struct.std::_Vector_base.6" = type { %"struct.std::_Vector_base<OpenImageIO_v2_6_0::ParamValue, std::allocator<OpenImageIO_v2_6_0::ParamValue>>::_Vector_impl" }
%"struct.std::_Vector_base<OpenImageIO_v2_6_0::ParamValue, std::allocator<OpenImageIO_v2_6_0::ParamValue>>::_Vector_impl" = type { %"struct.std::_Vector_base<OpenImageIO_v2_6_0::ParamValue, std::allocator<OpenImageIO_v2_6_0::ParamValue>>::_Vector_impl_data" }
%"struct.std::_Vector_base<OpenImageIO_v2_6_0::ParamValue, std::allocator<OpenImageIO_v2_6_0::ParamValue>>::_Vector_impl_data" = type { ptr, ptr, ptr }
%"class.std::unique_ptr" = type { %"struct.std::__uniq_ptr_data" }
%"struct.std::__uniq_ptr_data" = type { %"class.std::__uniq_ptr_impl" }
%"class.std::__uniq_ptr_impl" = type { %"class.std::tuple" }
%"class.std::tuple" = type { %"struct.std::_Tuple_impl" }
%"struct.std::_Tuple_impl" = type { %"struct.std::_Tuple_impl.10", %"struct.std::_Head_base.11" }
%"struct.std::_Tuple_impl.10" = type { %"struct.std::_Head_base" }
%"struct.std::_Head_base" = type { ptr }
%"struct.std::_Head_base.11" = type { ptr }

@.str.4 = private unnamed_addr constant [4 x i8] c"{}\0A\00", align 1

; Function Attrs: mustprogress uwtable
define hidden noundef zeroext i1 @_ZN18OpenImageIO_v2_6_09PNMOutput18write_ascii_binaryEPKhl(ptr noundef nonnull align 8 dereferenceable(280) %this, ptr noundef %data, i64 noundef %stride) #6 align 2 {
entry:
  %retval = alloca i1, align 1
  %this.addr = alloca ptr, align 8
  %data.addr = alloca ptr, align 8
  %stride.addr = alloca i64, align 8
  %x = alloca i32, align 4
  %ref.tmp = alloca i8, align 1
  store ptr %this, ptr %this.addr, align 8
  store ptr %data, ptr %data.addr, align 8
  store i64 %stride, ptr %stride.addr, align 8
  %this1 = load ptr, ptr %this.addr, align 8
  store i32 0, ptr %x, align 4
  br label %for.cond

for.cond:                                         ; preds = %for.inc, %entry
  %0 = load i32, ptr %x, align 4
  %m_spec = getelementptr inbounds %"class.OpenImageIO_v2_6_0::ImageOutput", ptr %this1, i32 0, i32 1
  %width = getelementptr inbounds %"class.OpenImageIO_v2_6_0::ImageSpec", ptr %m_spec, i32 0, i32 3
  %1 = load i32, ptr %width, align 4
  %cmp = icmp slt i32 %0, %1
  br i1 %cmp, label %for.body, label %for.end

for.body:                                         ; preds = %for.cond
  %2 = load ptr, ptr %data.addr, align 8
  %3 = load i32, ptr %x, align 4
  %conv = sext i32 %3 to i64
  %4 = load i64, ptr %stride.addr, align 8
  %mul = mul nsw i64 %conv, %4
  %arrayidx = getelementptr inbounds i8, ptr %2, i64 %mul
  %5 = load i8, ptr %arrayidx, align 1
  %tobool = icmp ne i8 %5, 0
  %cond = select i1 %tobool, i8 48, i8 49
  store i8 %cond, ptr %ref.tmp, align 1
  %call = call noundef zeroext i1 @_ZN18OpenImageIO_v2_6_011ImageOutput10iowritefmtIA4_cJcEEEbRKT_DpOT0_(ptr noundef nonnull align 8 dereferenceable(184) %this1, ptr noundef nonnull align 1 dereferenceable(4) @.str.4, ptr noundef nonnull align 1 dereferenceable(1) %ref.tmp)
  %lnot = xor i1 %call, true
  br i1 %lnot, label %if.then, label %if.end

if.then:                                          ; preds = %for.body
  store i1 false, ptr %retval, align 1
  br label %return

if.end:                                           ; preds = %for.body
  br label %for.inc

for.inc:                                          ; preds = %if.end
  %6 = load i32, ptr %x, align 4
  %inc = add nsw i32 %6, 1
  store i32 %inc, ptr %x, align 4
  br label %for.cond, !llvm.loop !4

for.end:                                          ; preds = %for.cond
  store i1 true, ptr %retval, align 1
  br label %return

return:                                           ; preds = %for.end, %if.then
  %7 = load i1, ptr %retval, align 1
  ret i1 %7
}