; Function Attrs: mustprogress uwtable
define hidden noundef zeroext i1 @_ZN18OpenImageIO_v2_6_09PNMOutput18write_ascii_binaryEPKhl(ptr noundef nonnull align 8 dereferenceable(280) %this, ptr nocapture noundef readonly %data, i64 noundef %stride) local_unnamed_addr #5 align 2 {
entry:
  %ref.tmp = alloca i8, align 1
  %width = getelementptr inbounds i8, ptr %this, i64 20
  %0 = load i32, ptr %width, align 4
  %cmp3 = icmp slt i32 %0, 1
  br i1 %cmp3, label %return, label %for.body

for.cond:                                         ; preds = %for.body
  %indvars.iv.next = add nuw nsw i64 %indvars.iv, 1
  %1 = load i32, ptr %width, align 4
  %2 = sext i32 %1 to i64
  %cmp.not = icmp slt i64 %indvars.iv.next, %2
  br i1 %cmp.not, label %for.body, label %return, !llvm.loop !4

for.body:                                         ; preds = %entry, %for.cond
  %indvars.iv = phi i64 [ %indvars.iv.next, %for.cond ], [ 0, %entry ]
  %mul = mul nsw i64 %indvars.iv, %stride
  %arrayidx = getelementptr inbounds i8, ptr %data, i64 %mul
  %3 = load i8, ptr %arrayidx, align 1
  %tobool.not = icmp eq i8 %3, 0
  %cond = select i1 %tobool.not, i8 49, i8 48
  store i8 %cond, ptr %ref.tmp, align 1
  %call = call noundef zeroext i1 @_ZN18OpenImageIO_v2_6_011ImageOutput10iowritefmtIA4_cJcEEEbRKT_DpOT0_(ptr noundef nonnull align 8 dereferenceable(184) %this, ptr noundef nonnull align 1 dereferenceable(4) @.str.4, ptr noundef nonnull align 1 dereferenceable(1) %ref.tmp)
  br i1 %call, label %for.cond, label %return

return:                                           ; preds = %for.body, %for.cond, %entry
  %cmp.lcssa = phi i1 [ true, %entry ], [ %call, %for.cond ], [ %call, %for.body ]
  ret i1 %cmp.lcssa
}